; ModuleID = 'source-C-CXX/57/742.c'
source_filename = "source-C-CXX/57/742.c"
target datalayout = "e-m:e-p270:32:32-p271:32:32-p272:64:64-i64:64-f80:128-n8:16:32:64-S128"
target triple = "x86_64-pc-linux-gnu"

%struct._IO_FILE = type { i32, i8*, i8*, i8*, i8*, i8*, i8*, i8*, i8*, i8*, i8*, i8*, %struct._IO_marker*, %struct._IO_FILE*, i32, i32, i64, i16, i8, [1 x i8], i8*, i64, %struct._IO_codecvt*, %struct._IO_wide_data*, %struct._IO_FILE*, i8*, i64, i32, [20 x i8] }
%struct._IO_marker = type opaque
%struct._IO_codecvt = type opaque
%struct._IO_wide_data = type opaque

@.str = private unnamed_addr constant [3 x i8] c"%d\00", align 1
@.str.1 = private unnamed_addr constant [4 x i8] c"%d\0A\00", align 1
@stdin = external local_unnamed_addr global %struct._IO_FILE*, align 8

; Function Attrs: nounwind sspstrong uwtable
define dso_local i32 @main() local_unnamed_addr #0 {
  %1 = alloca i32, align 4
  %2 = alloca i32, align 4
  %3 = alloca [100 x i8], align 16
  %4 = getelementptr inbounds [100 x i8], [100 x i8]* %3, i64 0, i64 0
  %5 = bitcast i32* %1 to i8*
  call void @llvm.lifetime.start.p0i8(i64 4, i8* nonnull %5) #6
  %6 = bitcast i32* %2 to i8*
  call void @llvm.lifetime.start.p0i8(i64 4, i8* nonnull %6) #6
  %7 = getelementptr inbounds [100 x i8], [100 x i8]* %3, i64 0, i64 0
  call void @llvm.lifetime.start.p0i8(i64 100, i8* nonnull %7) #6
  %8 = call i32 (i8*, ...) @__isoc99_scanf(i8* getelementptr inbounds ([3 x i8], [3 x i8]* @.str, i64 0, i64 0), i32* nonnull %2)
  %9 = load %struct._IO_FILE*, %struct._IO_FILE** @stdin, align 8, !tbaa !5
  %10 = call i32 @getc(%struct._IO_FILE* %9) #6
  %11 = load i32, i32* %2, align 4, !tbaa !9
  %12 = icmp sgt i32 %11, 0
  br i1 %12, label %13, label %61

13:                                               ; preds = %0, %53
  %14 = phi i32 [ %58, %53 ], [ 0, %0 ]
  %15 = call i32 (i8*, ...) bitcast (i32 (...)* @gets to i32 (i8*, ...)*)(i8* nonnull %7) #6
  %16 = call i64 @strlen(i8* noundef nonnull %7) #7
  %17 = trunc i64 %16 to i32
  %18 = load i8, i8* %7, align 16, !tbaa !11
  %19 = add i8 %18, -48
  %20 = icmp ult i8 %19, 10
  br i1 %20, label %53, label %21

21:                                               ; preds = %13
  %22 = icmp sgt i32 %17, 0
  br i1 %22, label %23, label %50

23:                                               ; preds = %21
  %24 = and i64 %16, 4294967295
  br label %25

25:                                               ; preds = %45, %23
  %26 = phi i8 [ %18, %23 ], [ %47, %45 ]
  %27 = phi i64 [ 0, %23 ], [ %43, %45 ]
  %28 = phi i32 [ 0, %23 ], [ %42, %45 ]
  %29 = add i8 %26, -48
  %30 = icmp ult i8 %29, 10
  %31 = add i8 %26, -97
  %32 = icmp ult i8 %31, 26
  %33 = or i1 %30, %32
  br i1 %33, label %39, label %34

34:                                               ; preds = %25
  %35 = add i8 %26, -65
  %36 = icmp ult i8 %35, 26
  %37 = icmp eq i8 %26, 95
  %38 = or i1 %37, %36
  br i1 %38, label %39, label %41

39:                                               ; preds = %34, %25
  %40 = add nsw i32 %28, 1
  br label %41

41:                                               ; preds = %34, %39
  %42 = phi i32 [ %40, %39 ], [ %28, %34 ]
  %43 = add nuw nsw i64 %27, 1
  %44 = icmp eq i64 %43, %24
  br i1 %44, label %48, label %45, !llvm.loop !12

45:                                               ; preds = %41
  %46 = getelementptr inbounds [100 x i8], [100 x i8]* %3, i64 0, i64 %43
  %47 = load i8, i8* %46, align 1, !tbaa !11
  br label %25

48:                                               ; preds = %41
  %49 = trunc i64 %16 to i32
  br label %50

50:                                               ; preds = %48, %21
  %51 = phi i32 [ 0, %21 ], [ %49, %48 ]
  %52 = phi i32 [ 0, %21 ], [ %42, %48 ]
  store i32 %51, i32* %1, align 4, !tbaa !9
  br label %53

53:                                               ; preds = %50, %13
  %54 = phi i32 [ 0, %13 ], [ %52, %50 ]
  %55 = icmp eq i32 %54, %17
  %56 = zext i1 %55 to i32
  %57 = call i32 (i8*, ...) @printf(i8* nonnull dereferenceable(1) getelementptr inbounds ([4 x i8], [4 x i8]* @.str.1, i64 0, i64 0), i32 %56)
  call void @llvm.memset.p0i8.i64(i8* noundef nonnull align 16 dereferenceable(100) %4, i8 32, i64 100, i1 false)
  store i32 100, i32* %1, align 4, !tbaa !9
  %58 = add nuw nsw i32 %14, 1
  %59 = load i32, i32* %2, align 4, !tbaa !9
  %60 = icmp slt i32 %58, %59
  br i1 %60, label %13, label %61, !llvm.loop !14

61:                                               ; preds = %53, %0
  %62 = call i32 (i8*, ...) @__isoc99_scanf(i8* getelementptr inbounds ([3 x i8], [3 x i8]* @.str, i64 0, i64 0), i32* nonnull %1)
  call void @llvm.lifetime.end.p0i8(i64 100, i8* nonnull %7) #6
  call void @llvm.lifetime.end.p0i8(i64 4, i8* nonnull %6) #6
  call void @llvm.lifetime.end.p0i8(i64 4, i8* nonnull %5) #6
  ret i32 0
}

; Function Attrs: argmemonly mustprogress nofree nosync nounwind willreturn
declare void @llvm.lifetime.start.p0i8(i64 immarg, i8* nocapture) #1

; Function Attrs: nofree nounwind
declare noundef i32 @__isoc99_scanf(i8* nocapture noundef readonly, ...) local_unnamed_addr #2

declare i32 @gets(...) local_unnamed_addr #3

; Function Attrs: argmemonly mustprogress nofree nounwind readonly willreturn
declare i64 @strlen(i8* nocapture) local_unnamed_addr #4

; Function Attrs: nofree nounwind
declare noundef i32 @printf(i8* nocapture noundef readonly, ...) local_unnamed_addr #2

; Function Attrs: argmemonly mustprogress nofree nosync nounwind willreturn
declare void @llvm.lifetime.end.p0i8(i64 immarg, i8* nocapture) #1

; Function Attrs: nofree nounwind
declare noundef i32 @getc(%struct._IO_FILE* nocapture noundef) local_unnamed_addr #2

; Function Attrs: argmemonly nofree nounwind willreturn writeonly
declare void @llvm.memset.p0i8.i64(i8* nocapture writeonly, i8, i64, i1 immarg) #5


!llvm.module.flags = !{!0, !1, !2, !3}
!llvm.ident = !{!4}

!0 = !{i32 1, !"wchar_size", i32 4}
!1 = !{i32 7, !"PIC Level", i32 2}
!2 = !{i32 7, !"PIE Level", i32 2}
!3 = !{i32 7, !"uwtable", i32 1}
!4 = !{!"clang version 13.0.0"}
!5 = !{!6, !6, i64 0}
!6 = !{!"any pointer", !7, i64 0}
!7 = !{!"omnipotent char", !8, i64 0}
!8 = !{!"Simple C/C++ TBAA"}
!9 = !{!10, !10, i64 0}
!10 = !{!"int", !7, i64 0}
!11 = !{!7, !7, i64 0}
!12 = distinct !{!12, !13}
!13 = !{!"llvm.loop.mustprogress"}
!14 = distinct !{!14, !13}
